(dp1
S'files'
p2
(dp3
S'janitoo_raspberry_i2c_pca9685'
p4
(dp5
S'index'
p6
(dp7
S'html_filename'
p8
S'janitoo_raspberry_i2c_pca9685.html'
p9
sS'name'
p10
g4
sS'nums'
p11
ccopy_reg
_reconstructor
p12
(ccoverage.results
Numbers
p13
c__builtin__
object
p14
NtRp15
(dp16
S'n_files'
p17
I1
sS'n_branches'
p18
I0
sS'n_statements'
p19
I4
sS'n_excluded'
p20
I5
sS'n_partial_branches'
p21
I0
sS'n_missing'
p22
I0
sS'n_missing_branches'
p23
I0
sbssS'hash'
p24
S'\xb7\xeb\xa7\x9c>\xb6$\xa8"\x12\xe3\xefN\xc1\xe9\xcd'
p25
ssS'janitoo_raspberry_i2c'
p26
(dp27
g6
(dp28
g8
S'janitoo_raspberry_i2c.html'
p29
sg10
g26
sg11
g12
(g13
g14
NtRp30
(dp31
g17
I1
sg18
I0
sg19
I4
sg20
I5
sg21
I0
sg22
I0
sg23
I0
sbssg24
S'\xb7\xeb\xa7\x9c>\xb6$\xa8"\x12\xe3\xefN\xc1\xe9\xcd'
p32
ssS'janitoo_raspberry_i2c_vcnl40xx'
p33
(dp34
g6
(dp35
g8
S'janitoo_raspberry_i2c_vcnl40xx.html'
p36
sg10
g33
sg11
g12
(g13
g14
NtRp37
(dp38
g17
I1
sg18
I0
sg19
I4
sg20
I5
sg21
I0
sg22
I0
sg23
I0
sbssg24
S'\xb7\xeb\xa7\x9c>\xb6$\xa8"\x12\xe3\xefN\xc1\xe9\xcd'
p39
ssS'janitoo_raspberry_i2c_vcnl40xx_vcnl40xx'
p40
(dp41
g6
(dp42
g8
S'janitoo_raspberry_i2c_vcnl40xx_vcnl40xx.html'
p43
sg10
S'janitoo_raspberry_i2c_vcnl40xx.vcnl40xx'
p44
sg11
g12
(g13
g14
NtRp45
(dp46
g17
I1
sg18
I0
sg19
I97
sg20
I0
sg21
I0
sg22
I58
sg23
I0
sbssg24
S'$\x8d\x97\x15Z\x01\xa6c\xf4\xe2\xcc\x82\x83\xf4\xf9\x15'
p47
ssS'janitoo_raspberry_i2c_ht16k33_ht16k33'
p48
(dp49
g6
(dp50
g8
S'janitoo_raspberry_i2c_ht16k33_ht16k33.html'
p51
sg10
S'janitoo_raspberry_i2c_ht16k33.ht16k33'
p52
sg11
g12
(g13
g14
NtRp53
(dp54
g17
I1
sg18
I0
sg19
I54
sg20
I0
sg21
I0
sg22
I3
sg23
I0
sbssg24
S'Y\x16Z\x03\xc5r\x1ef\x88\x08\x8d\xfc>bY_'
p55
ssS'janitoo_raspberry_i2c_bno055_bno'
p56
(dp57
g6
(dp58
g8
S'janitoo_raspberry_i2c_bno055_bno.html'
p59
sg10
S'janitoo_raspberry_i2c_bno055.bno'
p60
sg11
g12
(g13
g14
NtRp61
(dp62
g17
I1
sg18
I0
sg19
I66
sg20
I0
sg21
I0
sg22
I1
sg23
I0
sbssg24
S'd\xfe\xf1\xbc\x93L\x11\n\xb2!/\xcbp\xb9,\x13'
p63
ssS'janitoo_raspberry_i2c_ds1307'
p64
(dp65
g6
(dp66
g8
S'janitoo_raspberry_i2c_ds1307.html'
p67
sg10
g64
sg11
g12
(g13
g14
NtRp68
(dp69
g17
I1
sg18
I0
sg19
I4
sg20
I5
sg21
I0
sg22
I0
sg23
I0
sbssg24
S'\xb7\xeb\xa7\x9c>\xb6$\xa8"\x12\xe3\xefN\xc1\xe9\xcd'
p70
ssS'janitoo_raspberry_i2c_bmp_bmp'
p71
(dp72
g6
(dp73
g8
S'janitoo_raspberry_i2c_bmp_bmp.html'
p74
sg10
S'janitoo_raspberry_i2c_bmp.bmp'
p75
sg11
g12
(g13
g14
NtRp76
(dp77
g17
I1
sg18
I0
sg19
I108
sg20
I0
sg21
I0
sg22
I4
sg23
I0
sbssg24
S'>\xb2\xb7t\x89\x16\x82"="H\xd1\xe8^\xae}'
p78
ssS'janitoo_raspberry_i2c_ht16k33'
p79
(dp80
g6
(dp81
g8
S'janitoo_raspberry_i2c_ht16k33.html'
p82
sg10
g79
sg11
g12
(g13
g14
NtRp83
(dp84
g17
I1
sg18
I0
sg19
I4
sg20
I5
sg21
I0
sg22
I0
sg23
I0
sbssg24
S'\xb7\xeb\xa7\x9c>\xb6$\xa8"\x12\xe3\xefN\xc1\xe9\xcd'
p85
ssS'janitoo_raspberry_i2c_ads1x15_ads'
p86
(dp87
g6
(dp88
g8
S'janitoo_raspberry_i2c_ads1x15_ads.html'
p89
sg10
S'janitoo_raspberry_i2c_ads1x15.ads'
p90
sg11
g12
(g13
g14
NtRp91
(dp92
g17
I1
sg18
I0
sg19
I64
sg20
I0
sg21
I0
sg22
I1
sg23
I0
sbssg24
S'Q\xf6\x1c0\xe0\x97\x1duA\xb1\x04\x87\xab\xf4\xe0s'
p93
ssS'janitoo_raspberry_i2c_pca9685_pca9685'
p94
(dp95
g6
(dp96
g8
S'janitoo_raspberry_i2c_pca9685_pca9685.html'
p97
sg10
S'janitoo_raspberry_i2c_pca9685.pca9685'
p98
sg11
g12
(g13
g14
NtRp99
(dp100
g17
I1
sg18
I0
sg19
I166
sg20
I0
sg21
I0
sg22
I78
sg23
I0
sbssg24
S'\xf5Xv\xf9\xcb\x93\xe5\xdd\xa4,F\x9e\xbapPA'
p101
ssS'janitoo_raspberry_i2c_thread_i2c'
p102
(dp103
g6
(dp104
S'html_filename'
p105
S'janitoo_raspberry_i2c_thread_i2c.html'
p106
sS'name'
p107
S'janitoo_raspberry_i2c.thread_i2c'
p108
sS'nums'
p109
g12
(g13
g14
NtRp110
(dp111
g17
I1
sg18
I0
sg19
I30
sg20
I0
sg21
I0
sg22
I0
sg23
I0
sbssg24
S'1\xd2.\xb4\xe00N[\xf2wN\xd9\x1b(m\x9b'
p112
ssS'janitoo_raspberry_i2c_bmp'
p113
(dp114
g6
(dp115
g8
S'janitoo_raspberry_i2c_bmp.html'
p116
sg10
g113
sg11
g12
(g13
g14
NtRp117
(dp118
g17
I1
sg18
I0
sg19
I4
sg20
I5
sg21
I0
sg22
I0
sg23
I0
sbssg24
S'\xb7\xeb\xa7\x9c>\xb6$\xa8"\x12\xe3\xefN\xc1\xe9\xcd'
p119
ssS'janitoo_raspberry_i2c_bno055'
p120
(dp121
g6
(dp122
g8
S'janitoo_raspberry_i2c_bno055.html'
p123
sg10
g120
sg11
g12
(g13
g14
NtRp124
(dp125
g17
I1
sg18
I0
sg19
I4
sg20
I5
sg21
I0
sg22
I0
sg23
I0
sbssg24
S'\xb7\xeb\xa7\x9c>\xb6$\xa8"\x12\xe3\xefN\xc1\xe9\xcd'
p126
ssS'janitoo_raspberry_i2c_bus_i2c'
p127
(dp128
g6
(dp129
g8
S'janitoo_raspberry_i2c_bus_i2c.html'
p130
sg10
S'janitoo_raspberry_i2c.bus_i2c'
p131
sg11
g12
(g13
g14
NtRp132
(dp133
g17
I1
sg18
I0
sg19
I44
sg20
I0
sg21
I0
sg22
I0
sg23
I0
sbssg24
S'\xed\xf5DE\x01- \xd7\xe5\xca\xbe\xb5@\xd3\xd0\xe2'
p134
ssS'janitoo_raspberry_i2c_max9744'
p135
(dp136
g6
(dp137
g8
S'janitoo_raspberry_i2c_max9744.html'
p138
sg10
g135
sg11
g12
(g13
g14
NtRp139
(dp140
g17
I1
sg18
I0
sg19
I4
sg20
I5
sg21
I0
sg22
I0
sg23
I0
sbssg24
S'\xb7\xeb\xa7\x9c>\xb6$\xa8"\x12\xe3\xefN\xc1\xe9\xcd'
p141
ssS'janitoo_raspberry_i2c_ds1307_ds1307'
p142
(dp143
g6
(dp144
g8
S'janitoo_raspberry_i2c_ds1307_ds1307.html'
p145
sg10
S'janitoo_raspberry_i2c_ds1307.ds1307'
p146
sg11
g12
(g13
g14
NtRp147
(dp148
g17
I1
sg18
I0
sg19
I59
sg20
I0
sg21
I0
sg22
I8
sg23
I0
sbssg24
S'\xe0\x0e\x0c\xba[_\x0eC\x16\xaa\x7f\t}\n\xa8Q'
p149
ssS'janitoo_raspberry_i2c_ads1x15'
p150
(dp151
g6
(dp152
g8
S'janitoo_raspberry_i2c_ads1x15.html'
p153
sg10
g150
sg11
g12
(g13
g14
NtRp154
(dp155
g17
I1
sg18
I0
sg19
I4
sg20
I5
sg21
I0
sg22
I0
sg23
I0
sbssg24
S'\xb7\xeb\xa7\x9c>\xb6$\xa8"\x12\xe3\xefN\xc1\xe9\xcd'
p156
ssS'janitoo_raspberry_i2c_max9744_max'
p157
(dp158
g6
(dp159
g8
S'janitoo_raspberry_i2c_max9744_max.html'
p160
sg10
S'janitoo_raspberry_i2c_max9744.max'
p161
sg11
g12
(g13
g14
NtRp162
(dp163
g17
I1
sg18
I0
sg19
I50
sg20
I0
sg21
I0
sg22
I0
sg23
I0
sbssg24
S'\xd3eH\x85\x8fN\xee\xed\x819zw\x13R[\xb1'
p164
sssS'version'
p165
S'3.7.1'
p166
sS'settings'
p167
S'\xa1p\xe5\xa9\xc2\x01\x97\xba\xdb\x8b\xb6D\x8d\xc1]F'
p168
sS'format'
p169
I1
s.