(dp1
S'files'
p2
(dp3
S'janitoo_raspberry_i2c_pca9685'
p4
(dp5
S'index'
p6
(dp7
S'html_filename'
p8
S'janitoo_raspberry_i2c_pca9685.html'
p9
sS'name'
p10
g4
sS'nums'
p11
ccopy_reg
_reconstructor
p12
(ccoverage.results
Numbers
p13
c__builtin__
object
p14
NtRp15
(dp16
S'n_files'
p17
I1
sS'n_branches'
p18
I0
sS'n_statements'
p19
I4
sS'n_excluded'
p20
I5
sS'n_partial_branches'
p21
I0
sS'n_missing'
p22
I0
sS'n_missing_branches'
p23
I0
sbssS'hash'
p24
S'\xb7\xeb\xa7\x9c>\xb6$\xa8"\x12\xe3\xefN\xc1\xe9\xcd'
p25
ssS'janitoo_raspberry_i2c'
p26
(dp27
g6
(dp28
g8
S'janitoo_raspberry_i2c.html'
p29
sg10
g26
sg11
g12
(g13
g14
NtRp30
(dp31
g17
I1
sg18
I0
sg19
I4
sg20
I5
sg21
I0
sg22
I0
sg23
I0
sbssg24
S'\xb7\xeb\xa7\x9c>\xb6$\xa8"\x12\xe3\xefN\xc1\xe9\xcd'
p32
ssS'janitoo_raspberry_i2c_vcnl40xx'
p33
(dp34
g6
(dp35
g8
S'janitoo_raspberry_i2c_vcnl40xx.html'
p36
sg10
g33
sg11
g12
(g13
g14
NtRp37
(dp38
g17
I1
sg18
I0
sg19
I4
sg20
I5
sg21
I0
sg22
I0
sg23
I0
sbssg24
S'\xb7\xeb\xa7\x9c>\xb6$\xa8"\x12\xe3\xefN\xc1\xe9\xcd'
p39
ssS'janitoo_raspberry_i2c_max9744_max'
p40
(dp41
g6
(dp42
g8
S'janitoo_raspberry_i2c_max9744_max.html'
p43
sg10
S'janitoo_raspberry_i2c_max9744.max'
p44
sg11
g12
(g13
g14
NtRp45
(dp46
g17
I1
sg18
I0
sg19
I50
sg20
I0
sg21
I0
sg22
I0
sg23
I0
sbssg24
S'\xd3eH\x85\x8fN\xee\xed\x819zw\x13R[\xb1'
p47
ssS'janitoo_raspberry_i2c_pca9685_pca9685'
p48
(dp49
g6
(dp50
g8
S'janitoo_raspberry_i2c_pca9685_pca9685.html'
p51
sg10
S'janitoo_raspberry_i2c_pca9685.pca9685'
p52
sg11
g12
(g13
g14
NtRp53
(dp54
g17
I1
sg18
I0
sg19
I166
sg20
I0
sg21
I0
sg22
I78
sg23
I0
sbssg24
S'\xf5Xv\xf9\xcb\x93\xe5\xdd\xa4,F\x9e\xbapPA'
p55
ssS'janitoo_raspberry_i2c_ht16k33_ht16k33'
p56
(dp57
g6
(dp58
g8
S'janitoo_raspberry_i2c_ht16k33_ht16k33.html'
p59
sg10
S'janitoo_raspberry_i2c_ht16k33.ht16k33'
p60
sg11
g12
(g13
g14
NtRp61
(dp62
g17
I1
sg18
I0
sg19
I54
sg20
I0
sg21
I0
sg22
I3
sg23
I0
sbssg24
S'Y\x16Z\x03\xc5r\x1ef\x88\x08\x8d\xfc>bY_'
p63
ssS'janitoo_raspberry_i2c_bno055_bno'
p64
(dp65
g6
(dp66
g8
S'janitoo_raspberry_i2c_bno055_bno.html'
p67
sg10
S'janitoo_raspberry_i2c_bno055.bno'
p68
sg11
g12
(g13
g14
NtRp69
(dp70
g17
I1
sg18
I0
sg19
I66
sg20
I0
sg21
I0
sg22
I1
sg23
I0
sbssg24
S'd\xfe\xf1\xbc\x93L\x11\n\xb2!/\xcbp\xb9,\x13'
p71
ssS'janitoo_raspberry_i2c_bmp_bmp'
p72
(dp73
g6
(dp74
g8
S'janitoo_raspberry_i2c_bmp_bmp.html'
p75
sg10
S'janitoo_raspberry_i2c_bmp.bmp'
p76
sg11
g12
(g13
g14
NtRp77
(dp78
g17
I1
sg18
I0
sg19
I108
sg20
I0
sg21
I0
sg22
I4
sg23
I0
sbssg24
S'>\xb2\xb7t\x89\x16\x82"="H\xd1\xe8^\xae}'
p79
ssS'janitoo_raspberry_i2c_ht16k33'
p80
(dp81
g6
(dp82
g8
S'janitoo_raspberry_i2c_ht16k33.html'
p83
sg10
g80
sg11
g12
(g13
g14
NtRp84
(dp85
g17
I1
sg18
I0
sg19
I4
sg20
I5
sg21
I0
sg22
I0
sg23
I0
sbssg24
S'\xb7\xeb\xa7\x9c>\xb6$\xa8"\x12\xe3\xefN\xc1\xe9\xcd'
p86
ssS'janitoo_raspberry_i2c_ads1x15_ads'
p87
(dp88
g6
(dp89
g8
S'janitoo_raspberry_i2c_ads1x15_ads.html'
p90
sg10
S'janitoo_raspberry_i2c_ads1x15.ads'
p91
sg11
g12
(g13
g14
NtRp92
(dp93
g17
I1
sg18
I0
sg19
I64
sg20
I0
sg21
I0
sg22
I1
sg23
I0
sbssg24
S'Q\xf6\x1c0\xe0\x97\x1duA\xb1\x04\x87\xab\xf4\xe0s'
p94
ssS'janitoo_raspberry_i2c_bmp'
p95
(dp96
g6
(dp97
g8
S'janitoo_raspberry_i2c_bmp.html'
p98
sg10
g95
sg11
g12
(g13
g14
NtRp99
(dp100
g17
I1
sg18
I0
sg19
I4
sg20
I5
sg21
I0
sg22
I0
sg23
I0
sbssg24
S'\xb7\xeb\xa7\x9c>\xb6$\xa8"\x12\xe3\xefN\xc1\xe9\xcd'
p101
ssS'janitoo_raspberry_i2c_thread_i2c'
p102
(dp103
g6
(dp104
g8
S'janitoo_raspberry_i2c_thread_i2c.html'
p105
sg10
S'janitoo_raspberry_i2c.thread_i2c'
p106
sg11
g12
(g13
g14
NtRp107
(dp108
g17
I1
sg18
I0
sg19
I30
sg20
I0
sg21
I0
sg22
I0
sg23
I0
sbssg24
S'?\x99s\xfe\xad\x15\xf5\x9dV\xe6LR\x8c\x96\x96\xa6'
p109
ssS'janitoo_raspberry_i2c_ads1x15'
p110
(dp111
g6
(dp112
g8
S'janitoo_raspberry_i2c_ads1x15.html'
p113
sg10
g110
sg11
g12
(g13
g14
NtRp114
(dp115
g17
I1
sg18
I0
sg19
I4
sg20
I5
sg21
I0
sg22
I0
sg23
I0
sbssg24
S'\xb7\xeb\xa7\x9c>\xb6$\xa8"\x12\xe3\xefN\xc1\xe9\xcd'
p116
ssS'janitoo_raspberry_i2c_bus_i2c'
p117
(dp118
g6
(dp119
g8
S'janitoo_raspberry_i2c_bus_i2c.html'
p120
sg10
S'janitoo_raspberry_i2c.bus_i2c'
p121
sg11
g12
(g13
g14
NtRp122
(dp123
g17
I1
sg18
I0
sg19
I44
sg20
I0
sg21
I0
sg22
I0
sg23
I0
sbssg24
S'\xed\xf5DE\x01- \xd7\xe5\xca\xbe\xb5@\xd3\xd0\xe2'
p124
ssS'janitoo_raspberry_i2c_max9744'
p125
(dp126
g6
(dp127
g8
S'janitoo_raspberry_i2c_max9744.html'
p128
sg10
g125
sg11
g12
(g13
g14
NtRp129
(dp130
g17
I1
sg18
I0
sg19
I4
sg20
I5
sg21
I0
sg22
I0
sg23
I0
sbssg24
S'\xb7\xeb\xa7\x9c>\xb6$\xa8"\x12\xe3\xefN\xc1\xe9\xcd'
p131
ssS'janitoo_raspberry_i2c_vcnl40xx_vcnl40xx'
p132
(dp133
g6
(dp134
g8
S'janitoo_raspberry_i2c_vcnl40xx_vcnl40xx.html'
p135
sg10
S'janitoo_raspberry_i2c_vcnl40xx.vcnl40xx'
p136
sg11
g12
(g13
g14
NtRp137
(dp138
g17
I1
sg18
I0
sg19
I97
sg20
I0
sg21
I0
sg22
I58
sg23
I0
sbssg24
S'$\x8d\x97\x15Z\x01\xa6c\xf4\xe2\xcc\x82\x83\xf4\xf9\x15'
p139
ssS'janitoo_raspberry_i2c_ds1307_ds1307'
p140
(dp141
g6
(dp142
g8
S'janitoo_raspberry_i2c_ds1307_ds1307.html'
p143
sg10
S'janitoo_raspberry_i2c_ds1307.ds1307'
p144
sg11
g12
(g13
g14
NtRp145
(dp146
g17
I1
sg18
I0
sg19
I59
sg20
I0
sg21
I0
sg22
I8
sg23
I0
sbssg24
S'\xe0\x0e\x0c\xba[_\x0eC\x16\xaa\x7f\t}\n\xa8Q'
p147
ssS'janitoo_raspberry_i2c_ds1307'
p148
(dp149
g6
(dp150
g8
S'janitoo_raspberry_i2c_ds1307.html'
p151
sg10
g148
sg11
g12
(g13
g14
NtRp152
(dp153
g17
I1
sg18
I0
sg19
I4
sg20
I5
sg21
I0
sg22
I0
sg23
I0
sbssg24
S'\xb7\xeb\xa7\x9c>\xb6$\xa8"\x12\xe3\xefN\xc1\xe9\xcd'
p154
ssS'janitoo_raspberry_i2c_bno055'
p155
(dp156
g6
(dp157
g8
S'janitoo_raspberry_i2c_bno055.html'
p158
sg10
g155
sg11
g12
(g13
g14
NtRp159
(dp160
g17
I1
sg18
I0
sg19
I4
sg20
I5
sg21
I0
sg22
I0
sg23
I0
sbssg24
S'\xb7\xeb\xa7\x9c>\xb6$\xa8"\x12\xe3\xefN\xc1\xe9\xcd'
p161
sssS'version'
p162
S'3.7.1'
p163
sS'settings'
p164
S'\xa1p\xe5\xa9\xc2\x01\x97\xba\xdb\x8b\xb6D\x8d\xc1]F'
p165
sS'format'
p166
I1
s.